; ModuleID = 'source-C-CXX/53/350.c'
source_filename = "source-C-CXX/53/350.c"
target datalayout = "e-m:e-p270:32:32-p271:32:32-p272:64:64-i64:64-f80:128-n8:16:32:64-S128"
target triple = "x86_64-pc-linux-gnu"

@.str = private unnamed_addr constant [5 x i8] c"%d%d\00", align 1
@.str.1 = private unnamed_addr constant [3 x i8] c"%d\00", align 1

; Function Attrs: nofree nounwind sspstrong uwtable
define dso_local i32 @main() local_unnamed_addr #0 {
  %1 = alloca i32, align 4
  %2 = alloca i32, align 4
  %3 = bitcast i32* %1 to i8*
  call void @llvm.lifetime.start.p0i8(i64 4, i8* nonnull %3) #5
  %4 = bitcast i32* %2 to i8*
  call void @llvm.lifetime.start.p0i8(i64 4, i8* nonnull %4) #5
  %5 = call i32 (i8*, ...) @__isoc99_scanf(i8* getelementptr inbounds ([5 x i8], [5 x i8]* @.str, i64 0, i64 0), i32* nonnull %1, i32* nonnull %2)
  %6 = load i32, i32* %1, align 4, !tbaa !5
  %7 = icmp eq i32 %6, 2
  br i1 %7, label %83, label %8

8:                                                ; preds = %0
  %9 = icmp sgt i32 %6, 0
  br i1 %9, label %10, label %76

10:                                               ; preds = %8
  %11 = icmp ult i32 %6, 8
  br i1 %11, label %67, label %12

12:                                               ; preds = %10
  %13 = and i32 %6, -8
  %14 = insertelement <4 x i32> poison, i32 %6, i32 0
  %15 = shufflevector <4 x i32> %14, <4 x i32> poison, <4 x i32> zeroinitializer
  %16 = insertelement <4 x i32> poison, i32 %6, i32 0
  %17 = shufflevector <4 x i32> %16, <4 x i32> poison, <4 x i32> zeroinitializer
  %18 = add i32 %13, -8
  %19 = lshr exact i32 %18, 3
  %20 = add nuw nsw i32 %19, 1
  %21 = and i32 %20, 7
  %22 = icmp ult i32 %18, 56
  br i1 %22, label %47, label %23

23:                                               ; preds = %12
  %24 = and i32 %20, 1073741816
  br label %25

25:                                               ; preds = %25, %23
  %26 = phi <4 x i32> [ <i32 1, i32 1, i32 1, i32 1>, %23 ], [ %43, %25 ]
  %27 = phi <4 x i32> [ <i32 1, i32 1, i32 1, i32 1>, %23 ], [ %44, %25 ]
  %28 = phi i32 [ %24, %23 ], [ %45, %25 ]
  %29 = mul <4 x i32> %26, %15
  %30 = mul <4 x i32> %27, %17
  %31 = mul <4 x i32> %29, %15
  %32 = mul <4 x i32> %30, %17
  %33 = mul <4 x i32> %31, %15
  %34 = mul <4 x i32> %32, %17
  %35 = mul <4 x i32> %33, %15
  %36 = mul <4 x i32> %34, %17
  %37 = mul <4 x i32> %35, %15
  %38 = mul <4 x i32> %36, %17
  %39 = mul <4 x i32> %37, %15
  %40 = mul <4 x i32> %38, %17
  %41 = mul <4 x i32> %39, %15
  %42 = mul <4 x i32> %40, %17
  %43 = mul <4 x i32> %41, %15
  %44 = mul <4 x i32> %42, %17
  %45 = add i32 %28, -8
  %46 = icmp eq i32 %45, 0
  br i1 %46, label %47, label %25, !llvm.loop !9

47:                                               ; preds = %25, %12
  %48 = phi <4 x i32> [ undef, %12 ], [ %43, %25 ]
  %49 = phi <4 x i32> [ undef, %12 ], [ %44, %25 ]
  %50 = phi <4 x i32> [ <i32 1, i32 1, i32 1, i32 1>, %12 ], [ %43, %25 ]
  %51 = phi <4 x i32> [ <i32 1, i32 1, i32 1, i32 1>, %12 ], [ %44, %25 ]
  %52 = icmp eq i32 %21, 0
  br i1 %52, label %61, label %53

53:                                               ; preds = %47, %53
  %54 = phi <4 x i32> [ %57, %53 ], [ %50, %47 ]
  %55 = phi <4 x i32> [ %58, %53 ], [ %51, %47 ]
  %56 = phi i32 [ %59, %53 ], [ %21, %47 ]
  %57 = mul <4 x i32> %54, %15
  %58 = mul <4 x i32> %55, %17
  %59 = add i32 %56, -1
  %60 = icmp eq i32 %59, 0
  br i1 %60, label %61, label %53, !llvm.loop !12

61:                                               ; preds = %53, %47
  %62 = phi <4 x i32> [ %48, %47 ], [ %57, %53 ]
  %63 = phi <4 x i32> [ %49, %47 ], [ %58, %53 ]
  %64 = mul <4 x i32> %63, %62
  %65 = call i32 @llvm.vector.reduce.mul.v4i32(<4 x i32> %64)
  %66 = icmp eq i32 %6, %13
  br i1 %66, label %76, label %67

67:                                               ; preds = %10, %61
  %68 = phi i32 [ 0, %10 ], [ %13, %61 ]
  %69 = phi i32 [ 1, %10 ], [ %65, %61 ]
  br label %70

70:                                               ; preds = %67, %70
  %71 = phi i32 [ %74, %70 ], [ %68, %67 ]
  %72 = phi i32 [ %73, %70 ], [ %69, %67 ]
  %73 = mul nsw i32 %72, %6
  %74 = add nuw nsw i32 %71, 1
  %75 = icmp eq i32 %74, %6
  br i1 %75, label %76, label %70, !llvm.loop !14

76:                                               ; preds = %70, %61, %8
  %77 = phi i32 [ 1, %8 ], [ %65, %61 ], [ %73, %70 ]
  %78 = load i32, i32* %2, align 4, !tbaa !5
  %79 = add nsw i32 %6, -1
  %80 = mul nsw i32 %78, %79
  %81 = sub nsw i32 %77, %80
  %82 = call i32 (i8*, ...) @printf(i8* nonnull dereferenceable(1) getelementptr inbounds ([3 x i8], [3 x i8]* @.str.1, i64 0, i64 0), i32 %81)
  br label %85

83:                                               ; preds = %0
  %84 = call i32 @putchar(i32 55)
  br label %85

85:                                               ; preds = %83, %76
  call void @llvm.lifetime.end.p0i8(i64 4, i8* nonnull %4) #5
  call void @llvm.lifetime.end.p0i8(i64 4, i8* nonnull %3) #5
  ret i32 0
}

; Function Attrs: argmemonly mustprogress nofree nosync nounwind willreturn
declare void @llvm.lifetime.start.p0i8(i64 immarg, i8* nocapture) #1

; Function Attrs: nofree nounwind
declare noundef i32 @__isoc99_scanf(i8* nocapture noundef readonly, ...) local_unnamed_addr #2

; Function Attrs: nofree nounwind
declare noundef i32 @printf(i8* nocapture noundef readonly, ...) local_unnamed_addr #2

; Function Attrs: argmemonly mustprogress nofree nosync nounwind willreturn
declare void @llvm.lifetime.end.p0i8(i64 immarg, i8* nocapture) #1

; Function Attrs: nofree nounwind
declare noundef i32 @putchar(i32 noundef) local_unnamed_addr #3

; Function Attrs: nofree nosync nounwind readnone willreturn
declare i32 @llvm.vector.reduce.mul.v4i32(<4 x i32>) #4


!llvm.module.flags = !{!0, !1, !2, !3}
!llvm.ident = !{!4}

!0 = !{i32 1, !"wchar_size", i32 4}
!1 = !{i32 7, !"PIC Level", i32 2}
!2 = !{i32 7, !"PIE Level", i32 2}
!3 = !{i32 7, !"uwtable", i32 1}
!4 = !{!"clang version 13.0.0"}
!5 = !{!6, !6, i64 0}
!6 = !{!"int", !7, i64 0}
!7 = !{!"omnipotent char", !8, i64 0}
!8 = !{!"Simple C/C++ TBAA"}
!9 = distinct !{!9, !10, !11}
!10 = !{!"llvm.loop.mustprogress"}
!11 = !{!"llvm.loop.isvectorized", i32 1}
!12 = distinct !{!12, !13}
!13 = !{!"llvm.loop.unroll.disable"}
!14 = distinct !{!14, !10, !15, !11}
!15 = !{!"llvm.loop.unroll.runtime.disable"}
